; Function Attrs: nounwind sspstrong uwtable
define internal noundef i64 @partition_i(i64 %0, i64 noundef %1, i32 noundef %2, ptr noundef %3, i64 %4) #0 {
  switch i32 %2, label %rb_enum_values_pack.exit [
    i32 0, label %.thread
    i32 1, label %11
  ]

rb_enum_values_pack.exit:                         ; preds = %5
  %6 = sext i32 %2 to i64
  %7 = tail call i64 @rb_ary_new_from_values(i64 noundef %6, ptr noundef %3) #14
  %8 = icmp sgt i32 %2, 1
  br i1 %8, label %9, label %.thread

9:                                                ; preds = %rb_enum_values_pack.exit
  %10 = tail call i64 @rb_yield_force_blockarg(i64 noundef %7) #14
  br label %enum_yield.exit

11:                                               ; preds = %5
  %12 = load i64, ptr %3, align 8, !tbaa !7
  %13 = tail call i64 @rb_yield(i64 noundef %12) #14
  br label %enum_yield.exit

.thread:                                          ; preds = %rb_enum_values_pack.exit, %5
  %.0.i1113 = phi i64 [ 4, %5 ], [ %7, %rb_enum_values_pack.exit ]
  %14 = tail call i64 @rb_yield_values2(i32 noundef 0, ptr noundef null) #14
  br label %enum_yield.exit

enum_yield.exit:                                  ; preds = %9, %11, %.thread
  %.0.i10 = phi i64 [ %7, %9 ], [ %12, %11 ], [ %.0.i1113, %.thread ]
  %.0.i8 = phi i64 [ %10, %9 ], [ %13, %11 ], [ %14, %.thread ]
  %15 = inttoptr i64 %1 to ptr
  %16 = and i64 %.0.i8, -5
  %.not = icmp eq i64 %16, 0
  %.0.in.v = select i1 %.not, i64 24, i64 16
  %.0.in = getelementptr inbounds nuw i8, ptr %15, i64 %.0.in.v
  %.0 = load i64, ptr %.0.in, align 8, !tbaa !7
  %17 = tail call i64 @rb_ary_push(i64 noundef %.0, i64 noundef %.0.i10) #14
  ret i64 4
}